target datalayout = "e-m:e-p270:32:32-p271:32:32-p272:64:64-i64:64-i128:128-f80:128-n8:16:32:64-S128"
target triple = "x86_64-pc-linux-gnu"

%struct.estate = type { i32, ptr }
%struct.GVertex = type { %struct._GtsVertex, i32 }
%struct._GtsVertex = type { %struct._GtsPoint, ptr }
%struct._GtsPoint = type { %struct._GtsObject, double, double, double }
%struct._GtsObject = type { ptr, ptr, i32 }
%struct._GtsSegment = type { %struct._GtsObject, ptr, ptr }

; Function Attrs: nounwind uwtable
define internal i32 @addEdge(ptr noundef %0, ptr noundef %1) #0 {
  %3 = alloca ptr, align 8
  %4 = alloca ptr, align 8
  %5 = alloca ptr, align 8
  %6 = alloca ptr, align 8
  %7 = alloca i32, align 4
  %8 = alloca i32, align 4
  store ptr %0, ptr %3, align 8, !tbaa !25
  store ptr %1, ptr %4, align 8, !tbaa !25
  call void @llvm.lifetime.start.p0(i64 8, ptr %5) #12
  %9 = load ptr, ptr %3, align 8, !tbaa !25
  store ptr %9, ptr %5, align 8, !tbaa !60
  call void @llvm.lifetime.start.p0(i64 8, ptr %6) #12
  %10 = load ptr, ptr %4, align 8, !tbaa !25
  store ptr %10, ptr %6, align 8, !tbaa !25
  call void @llvm.lifetime.start.p0(i64 4, ptr %7) #12
  %11 = load ptr, ptr %5, align 8, !tbaa !60
  %12 = getelementptr inbounds nuw %struct._GtsSegment, ptr %11, i32 0, i32 1
  %13 = load ptr, ptr %12, align 8, !tbaa !62
  %14 = getelementptr inbounds nuw %struct.GVertex, ptr %13, i32 0, i32 1
  %15 = load i32, ptr %14, align 8, !tbaa !34
  store i32 %15, ptr %7, align 4, !tbaa !8
  call void @llvm.lifetime.start.p0(i64 4, ptr %8) #12
  %16 = load ptr, ptr %5, align 8, !tbaa !60
  %17 = getelementptr inbounds nuw %struct._GtsSegment, ptr %16, i32 0, i32 2
  %18 = load ptr, ptr %17, align 8, !tbaa !64
  %19 = getelementptr inbounds nuw %struct.GVertex, ptr %18, i32 0, i32 1
  %20 = load i32, ptr %19, align 8, !tbaa !34
  store i32 %20, ptr %8, align 4, !tbaa !8
  %21 = load i32, ptr %7, align 4, !tbaa !8
  %22 = load ptr, ptr %6, align 8, !tbaa !25
  %23 = getelementptr inbounds nuw %struct.estate, ptr %22, i32 0, i32 1
  %24 = load ptr, ptr %23, align 8, !tbaa !19
  %25 = load ptr, ptr %6, align 8, !tbaa !25
  %26 = getelementptr inbounds nuw %struct.estate, ptr %25, i32 0, i32 0
  %27 = load i32, ptr %26, align 8, !tbaa !17
  %28 = mul nsw i32 2, %27
  %29 = sext i32 %28 to i64
  %30 = getelementptr inbounds i32, ptr %24, i64 %29
  store i32 %21, ptr %30, align 4, !tbaa !8
  %31 = load i32, ptr %8, align 4, !tbaa !8
  %32 = load ptr, ptr %6, align 8, !tbaa !25
  %33 = getelementptr inbounds nuw %struct.estate, ptr %32, i32 0, i32 1
  %34 = load ptr, ptr %33, align 8, !tbaa !19
  %35 = load ptr, ptr %6, align 8, !tbaa !25
  %36 = getelementptr inbounds nuw %struct.estate, ptr %35, i32 0, i32 0
  %37 = load i32, ptr %36, align 8, !tbaa !17
  %38 = mul nsw i32 2, %37
  %39 = add nsw i32 %38, 1
  %40 = sext i32 %39 to i64
  %41 = getelementptr inbounds i32, ptr %34, i64 %40
  store i32 %31, ptr %41, align 4, !tbaa !8
  %42 = load ptr, ptr %6, align 8, !tbaa !25
  %43 = getelementptr inbounds nuw %struct.estate, ptr %42, i32 0, i32 0
  %44 = load i32, ptr %43, align 8, !tbaa !17
  %45 = add nsw i32 %44, 1
  store i32 %45, ptr %43, align 8, !tbaa !17
  call void @llvm.lifetime.end.p0(i64 4, ptr %8) #12
  call void @llvm.lifetime.end.p0(i64 4, ptr %7) #12
  call void @llvm.lifetime.end.p0(i64 8, ptr %6) #12
  call void @llvm.lifetime.end.p0(i64 8, ptr %5) #12
  ret i32 0
}