; Function Attrs: mustprogress nofree norecurse nosync nounwind willreturn memory(readwrite, inaccessiblemem: none) uwtable
define internal noundef i32 @addEdge(ptr noundef readonly captures(none) %0, ptr noundef captures(none) %1) #3 {
  %3 = getelementptr inbounds nuw i8, ptr %0, i64 24
  %4 = load ptr, ptr %3, align 8, !tbaa !50
  %5 = getelementptr inbounds nuw i8, ptr %4, i64 56
  %6 = load i32, ptr %5, align 8, !tbaa !23
  %7 = getelementptr inbounds nuw i8, ptr %0, i64 32
  %8 = load ptr, ptr %7, align 8, !tbaa !52
  %9 = getelementptr inbounds nuw i8, ptr %8, i64 56
  %10 = load i32, ptr %9, align 8, !tbaa !23
  %11 = getelementptr inbounds nuw i8, ptr %1, i64 8
  %12 = load ptr, ptr %11, align 8, !tbaa !16
  %13 = load i32, ptr %1, align 8, !tbaa !13
  %14 = shl nsw i32 %13, 1
  %15 = sext i32 %14 to i64
  %16 = getelementptr inbounds i32, ptr %12, i64 %15
  store i32 %6, ptr %16, align 4, !tbaa !10
  %17 = load i32, ptr %1, align 8, !tbaa !13
  %18 = shl nsw i32 %17, 1
  %19 = or disjoint i32 %18, 1
  %20 = sext i32 %19 to i64
  %21 = getelementptr inbounds i32, ptr %12, i64 %20
  store i32 %10, ptr %21, align 4, !tbaa !10
  %22 = load i32, ptr %1, align 8, !tbaa !13
  %23 = add nsw i32 %22, 1
  store i32 %23, ptr %1, align 8, !tbaa !13
  ret i32 0
}